	.file	"basicArith_copy0.c"
	.text
	.globl	Add
	.type	Add, @function
Add:
.LFB0:
	.cfi_startproc
	pushq	%rbp
	.cfi_def_cfa_offset 16
	.cfi_offset 6, -16
	movq	%rsp, %rbp
	.cfi_def_cfa_register 6
	movsd	%xmm0, -8(%rbp)
	movsd	%xmm1, -16(%rbp)
	movsd	-8(%rbp), %xmm0
	addsd	-16(%rbp), %xmm0
	popq	%rbp
	.cfi_def_cfa 7, 8
	ret
	.cfi_endproc
.LFE0:
	.size	Add, .-Add
	.globl	Min
	.type	Min, @function
Min:
.LFB1:
	.cfi_startproc
	pushq	%rbp
	.cfi_def_cfa_offset 16
	.cfi_offset 6, -16
	movq	%rsp, %rbp
	.cfi_def_cfa_register 6
	movsd	%xmm0, -8(%rbp)
	movsd	%xmm1, -16(%rbp)
	movsd	-8(%rbp), %xmm0
	comisd	-16(%rbp), %xmm0
	jbe	.L8
	movsd	-8(%rbp), %xmm0
	subsd	-16(%rbp), %xmm0
	jmp	.L6
.L8:
	movsd	-16(%rbp), %xmm0
	subsd	-8(%rbp), %xmm0
.L6:
	popq	%rbp
	.cfi_def_cfa 7, 8
	ret
	.cfi_endproc
.LFE1:
	.size	Min, .-Min
	.globl	Mul
	.type	Mul, @function
Mul:
.LFB2:
	.cfi_startproc
	pushq	%rbp
	.cfi_def_cfa_offset 16
	.cfi_offset 6, -16
	movq	%rsp, %rbp
	.cfi_def_cfa_register 6
	movsd	%xmm0, -8(%rbp)
	movsd	%xmm1, -16(%rbp)
	movsd	-8(%rbp), %xmm0
	mulsd	-16(%rbp), %xmm0
	popq	%rbp
	.cfi_def_cfa 7, 8
	ret
	.cfi_endproc
.LFE2:
	.size	Mul, .-Mul
	.globl	Div
	.type	Div, @function
Div:
.LFB3:
	.cfi_startproc
	pushq	%rbp
	.cfi_def_cfa_offset 16
	.cfi_offset 6, -16
	movq	%rsp, %rbp
	.cfi_def_cfa_register 6
	movsd	%xmm0, -8(%rbp)
	movsd	%xmm1, -16(%rbp)
	movsd	-8(%rbp), %xmm0
	divsd	-16(%rbp), %xmm0
	popq	%rbp
	.cfi_def_cfa 7, 8
	ret
	.cfi_endproc
.LFE3:
	.size	Div, .-Div
	.ident	"GCC: (Ubuntu 9.1.0-2ubuntu2~18.04) 9.1.0"
	.section	.note.GNU-stack,"",@progbits
